; Function Attrs: nounwind uwtable
define ptr @l_Array_forIn_x27Unsafe_loop___at___private_Lean_Elab_Print_0__Lean_Elab_Command_printEqnsOf___spec__1___boxed(ptr noundef %0, ptr noundef %1, ptr noundef %2, ptr noundef %3, ptr noundef %4, ptr noundef %5, ptr noundef %6, ptr noundef %7, ptr noundef %8) local_unnamed_addr #0 {
  %10 = getelementptr i8, ptr %3, i64 8
  %.val32 = load i64, ptr %10, align 8, !tbaa !11
  %11 = ptrtoint ptr %3 to i64
  %12 = and i64 %11, 1
  %.not = icmp eq i64 %12, 0
  br i1 %.not, label %13, label %lean_dec.exit21

13:                                               ; preds = %9
  %14 = load i32, ptr %3, align 4, !tbaa !8
  %15 = icmp sgt i32 %14, 1
  br i1 %15, label %16, label %18, !prof !13

16:                                               ; preds = %13
  %17 = add nsw i32 %14, -1
  store i32 %17, ptr %3, align 4, !tbaa !8
  br label %lean_dec.exit21

18:                                               ; preds = %13
  %.not.i = icmp eq i32 %14, 0
  br i1 %.not.i, label %lean_dec.exit21, label %19

19:                                               ; preds = %18
  tail call void @lean_dec_ref_cold(ptr noundef nonnull %3) #5
  br label %lean_dec.exit21

lean_dec.exit21:                                  ; preds = %19, %18, %16, %9
  %20 = getelementptr i8, ptr %4, i64 8
  %.val = load i64, ptr %20, align 8, !tbaa !11
  %21 = ptrtoint ptr %4 to i64
  %22 = and i64 %21, 1
  %.not33 = icmp eq i64 %22, 0
  br i1 %.not33, label %23, label %lean_dec.exit20

23:                                               ; preds = %lean_dec.exit21
  %24 = load i32, ptr %4, align 4, !tbaa !8
  %25 = icmp sgt i32 %24, 1
  br i1 %25, label %26, label %28, !prof !13

26:                                               ; preds = %23
  %27 = add nsw i32 %24, -1
  store i32 %27, ptr %4, align 4, !tbaa !8
  br label %lean_dec.exit20

28:                                               ; preds = %23
  %.not.i22 = icmp eq i32 %24, 0
  br i1 %.not.i22, label %lean_dec.exit20, label %29

29:                                               ; preds = %28
  tail call void @lean_dec_ref_cold(ptr noundef nonnull %4) #5
  br label %lean_dec.exit20

lean_dec.exit20:                                  ; preds = %29, %28, %26, %lean_dec.exit21
  %30 = tail call ptr @l_Array_forIn_x27Unsafe_loop___at___private_Lean_Elab_Print_0__Lean_Elab_Command_printEqnsOf___spec__1(ptr poison, ptr poison, ptr noundef %2, i64 noundef %.val32, i64 noundef %.val, ptr noundef %5, ptr noundef %6, ptr noundef %7, ptr noundef %8)
  %31 = ptrtoint ptr %7 to i64
  %32 = and i64 %31, 1
  %.not34 = icmp eq i64 %32, 0
  br i1 %.not34, label %33, label %lean_dec.exit19

33:                                               ; preds = %lean_dec.exit20
  %34 = load i32, ptr %7, align 4, !tbaa !8
  %35 = icmp sgt i32 %34, 1
  br i1 %35, label %36, label %38, !prof !13

36:                                               ; preds = %33
  %37 = add nsw i32 %34, -1
  store i32 %37, ptr %7, align 4, !tbaa !8
  br label %lean_dec.exit19

38:                                               ; preds = %33
  %.not.i24 = icmp eq i32 %34, 0
  br i1 %.not.i24, label %lean_dec.exit19, label %39

39:                                               ; preds = %38
  tail call void @lean_dec_ref_cold(ptr noundef nonnull %7) #5
  br label %lean_dec.exit19

lean_dec.exit19:                                  ; preds = %39, %38, %36, %lean_dec.exit20
  %40 = ptrtoint ptr %2 to i64
  %41 = and i64 %40, 1
  %.not35 = icmp eq i64 %41, 0
  br i1 %.not35, label %42, label %lean_dec.exit18

42:                                               ; preds = %lean_dec.exit19
  %43 = load i32, ptr %2, align 4, !tbaa !8
  %44 = icmp sgt i32 %43, 1
  br i1 %44, label %45, label %47, !prof !13

45:                                               ; preds = %42
  %46 = add nsw i32 %43, -1
  store i32 %46, ptr %2, align 4, !tbaa !8
  br label %lean_dec.exit18

47:                                               ; preds = %42
  %.not.i26 = icmp eq i32 %43, 0
  br i1 %.not.i26, label %lean_dec.exit18, label %48

48:                                               ; preds = %47
  tail call void @lean_dec_ref_cold(ptr noundef nonnull %2) #5
  br label %lean_dec.exit18

lean_dec.exit18:                                  ; preds = %48, %47, %45, %lean_dec.exit19
  %49 = ptrtoint ptr %1 to i64
  %50 = and i64 %49, 1
  %.not36 = icmp eq i64 %50, 0
  br i1 %.not36, label %51, label %lean_dec.exit17

51:                                               ; preds = %lean_dec.exit18
  %52 = load i32, ptr %1, align 4, !tbaa !8
  %53 = icmp sgt i32 %52, 1
  br i1 %53, label %54, label %56, !prof !13

54:                                               ; preds = %51
  %55 = add nsw i32 %52, -1
  store i32 %55, ptr %1, align 4, !tbaa !8
  br label %lean_dec.exit17

56:                                               ; preds = %51
  %.not.i28 = icmp eq i32 %52, 0
  br i1 %.not.i28, label %lean_dec.exit17, label %57

57:                                               ; preds = %56
  tail call void @lean_dec_ref_cold(ptr noundef nonnull %1) #5
  br label %lean_dec.exit17

lean_dec.exit17:                                  ; preds = %57, %56, %54, %lean_dec.exit18
  %58 = ptrtoint ptr %0 to i64
  %59 = and i64 %58, 1
  %.not37 = icmp eq i64 %59, 0
  br i1 %.not37, label %60, label %lean_dec.exit

60:                                               ; preds = %lean_dec.exit17
  %61 = load i32, ptr %0, align 4, !tbaa !8
  %62 = icmp sgt i32 %61, 1
  br i1 %62, label %63, label %65, !prof !13

63:                                               ; preds = %60
  %64 = add nsw i32 %61, -1
  store i32 %64, ptr %0, align 4, !tbaa !8
  br label %lean_dec.exit

65:                                               ; preds = %60
  %.not.i30 = icmp eq i32 %61, 0
  br i1 %.not.i30, label %lean_dec.exit, label %66

66:                                               ; preds = %65
  tail call void @lean_dec_ref_cold(ptr noundef nonnull %0) #5
  br label %lean_dec.exit

lean_dec.exit:                                    ; preds = %66, %65, %63, %lean_dec.exit17
  ret ptr %30
}